((dp1
(S'auth'
p2
S'permission'
p3
I13
tp4
cdjango.db.models.base
model_unpickle
p5
(cdjango.contrib.auth.models
Permission
p6
(lcdjango.db.models.base
simple_class_factory
p7
tRp8
(dp9
S'content_type_id'
p10
I5
sS'_state'
p11
ccopy_reg
_reconstructor
p12
(cdjango.db.models.base
ModelState
p13
c__builtin__
object
p14
NtRp15
(dp16
S'adding'
p17
I00
sS'db'
p18
S'default'
p19
sbsS'_content_type_cache'
p20
g5
(cdjango.contrib.contenttypes.models
ContentType
p21
(lg7
tRp22
(dp23
S'model'
p24
Vcontenttype
p25
sS'app_label'
p26
Vcontenttypes
p27
sg11
g12
(g13
g14
NtRp28
(dp29
g17
I00
sg18
g19
sbsS'id'
p30
I5
sS'name'
p31
Vcontent type
p32
sbsS'codename'
p33
Vadd_contenttype
p34
sg30
I13
sg31
VCan add content type
p35
sbs(S'contenttypes'
p36
S'contenttype'
p37
I14
tp38
g5
(g21
(lg7
tRp39
(dp40
g24
Vtblmetodos
p41
sg26
Vgrmetodos
p42
sg11
g12
(g13
g14
NtRp43
(dp44
g17
I00
sg18
g19
sbsg30
I14
sg31
Vtbl metodos
p45
sbs(g2
g3
I42
tp46
g5
(g6
(lg7
tRp47
(dp48
g10
I14
sg11
g12
(g13
g14
NtRp49
(dp50
g17
I00
sg18
g19
sbsg20
g5
(g21
(lg7
tRp51
(dp52
g24
Vtblmetodos
p53
sg26
Vgrmetodos
p54
sg11
g12
(g13
g14
NtRp55
(dp56
g17
I00
sg18
g19
sbsg30
I14
sg31
Vtbl metodos
p57
sbsg33
Vdelete_tblmetodos
p58
sg30
I42
sg31
VCan delete tbl metodos
p59
sbs(g2
g3
I24
tp60
g5
(g6
(lg7
tRp61
(dp62
g10
I8
sg11
g12
(g13
g14
NtRp63
(dp64
g17
I00
sg18
g19
sbsg20
g5
(g21
(lg7
tRp65
(dp66
g24
Vmigrationhistory
p67
sg26
Vsouth
p68
sg11
g12
(g13
g14
NtRp69
(dp70
g17
I00
sg18
g19
sbsg30
I8
sg31
Vmigration history
p71
sbsg33
Vdelete_migrationhistory
p72
sg30
I24
sg31
VCan delete migration history
p73
sbs(g2
g3
I14
tp74
g5
(g6
(lg7
tRp75
(dp76
g10
I5
sg11
g12
(g13
g14
NtRp77
(dp78
g17
I00
sg18
g19
sbsg20
g5
(g21
(lg7
tRp79
(dp80
g24
Vcontenttype
p81
sg26
Vcontenttypes
p82
sg11
g12
(g13
g14
NtRp83
(dp84
g17
I00
sg18
g19
sbsg30
I5
sg31
Vcontent type
p85
sbsg33
Vchange_contenttype
p86
sg30
I14
sg31
VCan change content type
p87
sbs(g36
g37
I1
tp88
g5
(g21
(lg7
tRp89
(dp90
g24
Vpermission
p91
sg26
Vauth
p92
sg11
g12
(g13
g14
NtRp93
(dp94
g17
I00
sg18
g19
sbsg30
I1
sg31
Vpermission
p95
sbs(g2
g3
I43
tp96
g5
(g6
(lg7
tRp97
(dp98
g10
I15
sg11
g12
(g13
g14
NtRp99
(dp100
g17
I00
sg18
g19
sbsg20
g5
(g21
(lg7
tRp101
(dp102
g24
Vtblatrets
p103
sg26
Vgrmetodos
p104
sg11
g12
(g13
g14
NtRp105
(dp106
g17
I00
sg18
g19
sbsg30
I15
sg31
Vtbl atr ets
p107
sbsg33
Vadd_tblatrets
p108
sg30
I43
sg31
VCan add tbl atr ets
p109
sbs(g2
g3
I25
tp110
g5
(g6
(lg7
tRp111
(dp112
g10
I9
sg11
g12
(g13
g14
NtRp113
(dp114
g17
I00
sg18
g19
sbsg20
g5
(g21
(lg7
tRp115
(dp116
g24
Vtblatributos
p117
sg26
Vatributos
p118
sg11
g12
(g13
g14
NtRp119
(dp120
g17
I00
sg18
g19
sbsg30
I9
sg31
Vtbl atributos
p121
sbsg33
Vadd_tblatributos
p122
sg30
I25
sg31
VCan add tbl atributos
p123
sbs(g2
g3
I15
tp124
g5
(g6
(lg7
tRp125
(dp126
g10
I5
sg11
g12
(g13
g14
NtRp127
(dp128
g17
I00
sg18
g19
sbsg20
g5
(g21
(lg7
tRp129
(dp130
g24
Vcontenttype
p131
sg26
Vcontenttypes
p132
sg11
g12
(g13
g14
NtRp133
(dp134
g17
I00
sg18
g19
sbsg30
I5
sg31
Vcontent type
p135
sbsg33
Vdelete_contenttype
p136
sg30
I15
sg31
VCan delete content type
p137
sbs(g2
g3
I52
tp138
g5
(g6
(lg7
tRp139
(dp140
g10
I18
sg11
g12
(g13
g14
NtRp141
(dp142
g17
I00
sg18
g19
sbsg20
g5
(g21
(lg7
tRp143
(dp144
g24
Vtblmetatets
p145
sg26
Vgrmetodos
p146
sg11
g12
(g13
g14
NtRp147
(dp148
g17
I00
sg18
g19
sbsg30
I18
sg31
Vtbl met at ets
p149
sbsg33
Vadd_tblmetatets
p150
sg30
I52
sg31
VCan add tbl met at ets
p151
sbs(S'sessions'
p152
S'session'
p153
Veed102f2ffd5d85167340760b52c31fa
p154
tp155
g5
(cdjango.contrib.sessions.models
Session
p156
(lg7
tRp157
(dp158
S'session_key'
p159
g154
sg11
g12
(g13
g14
NtRp160
(dp161
g17
I00
sg18
g19
sbsS'expire_date'
p162
cdatetime
datetime
p163
(S'\x07\xdc\x03\x01\x07\x08\x01\t\xfeE'
tRp164
sS'session_data'
p165
VZjk4MzcwYTdhNThkN2E0ZTAzZGNjYTU2YTlkZmE3YzA1NjcyODY2ODqAAn1xAShVEl9hdXRoX3Vz\u000aZXJfYmFja2VuZHECVSlkamFuZ28uY29udHJpYi5hdXRoLmJhY2tlbmRzLk1vZGVsQmFja2VuZHED\u000aVQ1fYXV0aF91c2VyX2lkcQRLAXUu\u000a
p166
sbs(g2
g3
I26
tp167
g5
(g6
(lg7
tRp168
(dp169
g10
I9
sg11
g12
(g13
g14
NtRp170
(dp171
g17
I00
sg18
g19
sbsg20
g5
(g21
(lg7
tRp172
(dp173
g24
Vtblatributos
p174
sg26
Vatributos
p175
sg11
g12
(g13
g14
NtRp176
(dp177
g17
I00
sg18
g19
sbsg30
I9
sg31
Vtbl atributos
p178
sbsg33
Vchange_tblatributos
p179
sg30
I26
sg31
VCan change tbl atributos
p180
sbs(S'south'
p181
S'migrationhistory'
p182
I1
tp183
g5
(csouth.models
MigrationHistory
p184
(lg7
tRp185
(dp186
S'migration'
p187
V0001_initial
p188
sS'applied'
p189
g163
(S'\x07\xdc\x02\x0f\x06,;\x0bn\x07'
tRp190
sg11
g12
(g13
g14
NtRp191
(dp192
g17
I00
sg18
g19
sbsg30
I1
sS'app_name'
p193
Vgrmetodos
p194
sbs(g2
g3
I8
tp195
g5
(g6
(lg7
tRp196
(dp197
g10
I3
sg11
g12
(g13
g14
NtRp198
(dp199
g17
I00
sg18
g19
sbsg20
g5
(g21
(lg7
tRp200
(dp201
g24
Vuser
p202
sg26
Vauth
p203
sg11
g12
(g13
g14
NtRp204
(dp205
g17
I00
sg18
g19
sbsg30
I3
sg31
Vuser
p206
sbsg33
Vchange_user
p207
sg30
I8
sg31
VCan change user
p208
sbs(g36
g37
I3
tp209
g5
(g21
(lg7
tRp210
(dp211
g24
Vuser
p212
sg26
Vauth
p213
sg11
g12
(g13
g14
NtRp214
(dp215
g17
I00
sg18
g19
sbsg30
I3
sg31
Vuser
p216
sbs(g2
g3
I53
tp217
g5
(g6
(lg7
tRp218
(dp219
g10
I18
sg11
g12
(g13
g14
NtRp220
(dp221
g17
I00
sg18
g19
sbsg20
g5
(g21
(lg7
tRp222
(dp223
g24
Vtblmetatets
p224
sg26
Vgrmetodos
p225
sg11
g12
(g13
g14
NtRp226
(dp227
g17
I00
sg18
g19
sbsg30
I18
sg31
Vtbl met at ets
p228
sbsg33
Vchange_tblmetatets
p229
sg30
I53
sg31
VCan change tbl met at ets
p230
sbs(g36
g37
I17
tp231
g5
(g21
(lg7
tRp232
(dp233
g24
Vtblmetins
p234
sg26
Vgrmetodos
p235
sg11
g12
(g13
g14
NtRp236
(dp237
g17
I00
sg18
g19
sbsg30
I17
sg31
Vtbl met ins
p238
sbs(g2
g3
I27
tp239
g5
(g6
(lg7
tRp240
(dp241
g10
I9
sg11
g12
(g13
g14
NtRp242
(dp243
g17
I00
sg18
g19
sbsg20
g5
(g21
(lg7
tRp244
(dp245
g24
Vtblatributos
p246
sg26
Vatributos
p247
sg11
g12
(g13
g14
NtRp248
(dp249
g17
I00
sg18
g19
sbsg30
I9
sg31
Vtbl atributos
p250
sbsg33
Vdelete_tblatributos
p251
sg30
I27
sg31
VCan delete tbl atributos
p252
sbs(g2
g3
I9
tp253
g5
(g6
(lg7
tRp254
(dp255
g10
I3
sg11
g12
(g13
g14
NtRp256
(dp257
g17
I00
sg18
g19
sbsg20
g5
(g21
(lg7
tRp258
(dp259
g24
Vuser
p260
sg26
Vauth
p261
sg11
g12
(g13
g14
NtRp262
(dp263
g17
I00
sg18
g19
sbsg30
I3
sg31
Vuser
p264
sbsg33
Vdelete_user
p265
sg30
I9
sg31
VCan delete user
p266
sbs(S'admin'
p267
S'logentry'
p268
I1
tp269
g5
(cdjango.contrib.admin.models
LogEntry
p270
(lg7
tRp271
(dp272
S'action_flag'
p273
I2
sS'action_time'
p274
g163
(S'\x07\xdc\x02\x10\x07\x1e6\x03\x935'
tRp275
sS'user_id'
p276
I1
sg10
I11
sS'object_repr'
p277
Vmetro
p278
sg11
g12
(g13
g14
NtRp279
(dp280
g17
I00
sg18
g19
sbsS'object_id'
p281
V2
sS'change_message'
p282
VChanged unidade.
p283
sg30
I1
sbs(g36
g37
I2
tp284
g5
(g21
(lg7
tRp285
(dp286
g24
Vgroup
p287
sg26
Vauth
p288
sg11
g12
(g13
g14
NtRp289
(dp290
g17
I00
sg18
g19
sbsg30
I2
sg31
Vgroup
p291
sbs(g2
g3
I54
tp292
g5
(g6
(lg7
tRp293
(dp294
g10
I18
sg11
g12
(g13
g14
NtRp295
(dp296
g17
I00
sg18
g19
sbsg20
g5
(g21
(lg7
tRp297
(dp298
g24
Vtblmetatets
p299
sg26
Vgrmetodos
p300
sg11
g12
(g13
g14
NtRp301
(dp302
g17
I00
sg18
g19
sbsg30
I18
sg31
Vtbl met at ets
p303
sbsg33
Vdelete_tblmetatets
p304
sg30
I54
sg31
VCan delete tbl met at ets
p305
sbs(g36
g37
I16
tp306
g5
(g21
(lg7
tRp307
(dp308
g24
Vtblinstrumentais
p309
sg26
Vgrmetodos
p310
sg11
g12
(g13
g14
NtRp311
(dp312
g17
I00
sg18
g19
sbsg30
I16
sg31
Vtbl instrumentais
p313
sbs(g2
g3
I36
tp314
g5
(g6
(lg7
tRp315
(dp316
g10
I12
sg11
g12
(g13
g14
NtRp317
(dp318
g17
I00
sg18
g19
sbsg20
g5
(g21
(lg7
tRp319
(dp320
g24
Vtbllocais
p321
sg26
Vgrmetodos
p322
sg11
g12
(g13
g14
NtRp323
(dp324
g17
I00
sg18
g19
sbsg30
I12
sg31
Vtbl locais
p325
sbsg33
Vdelete_tbllocais
p326
sg30
I36
sg31
VCan delete tbl locais
p327
sbs(S'auth'
p328
S'user'
p329
I1
tp330
g5
(cdjango.contrib.auth.models
User
p331
(lg7
tRp332
(dp333
S'username'
p334
Vroot
p335
sS'first_name'
p336
V
sS'last_name'
p337
V
sS'is_active'
p338
I01
sg11
g12
(g13
g14
NtRp339
(dp340
g17
I00
sg18
g19
sbsS'email'
p341
Vrodrigokoblitz@gmail.com
p342
sS'is_superuser'
p343
I01
sS'is_staff'
p344
I01
sS'last_login'
p345
g163
(S'\x07\xdc\x02\x10\x07\x08\x01\t{\xf3'
tRp346
sS'password'
p347
Vsha1$62a40$73323b416f8aaa6f593da80e610c229cf4c80877
p348
sg30
I1
sS'date_joined'
p349
g163
(S'\x07\xdc\x02\x0f\x00+ \t\x92b'
tRp350
sbs(g2
g3
I10
tp351
g5
(g6
(lg7
tRp352
(dp353
g10
I4
sg11
g12
(g13
g14
NtRp354
(dp355
g17
I00
sg18
g19
sbsg20
g5
(g21
(lg7
tRp356
(dp357
g24
Vmessage
p358
sg26
Vauth
p359
sg11
g12
(g13
g14
NtRp360
(dp361
g17
I00
sg18
g19
sbsg30
I4
sg31
Vmessage
p362
sbsg33
Vadd_message
p363
sg30
I10
sg31
VCan add message
p364
sbs(g36
g37
I5
tp365
g5
(g21
(lg7
tRp366
(dp367
g24
Vcontenttype
p368
sg26
Vcontenttypes
p369
sg11
g12
(g13
g14
NtRp370
(dp371
g17
I00
sg18
g19
sbsg30
I5
sg31
Vcontent type
p372
sbs(g2
g3
I55
tp373
g5
(g6
(lg7
tRp374
(dp375
g10
I19
sg11
g12
(g13
g14
NtRp376
(dp377
g17
I00
sg18
g19
sbsg20
g5
(g21
(lg7
tRp378
(dp379
g24
Vlogentry
p380
sg26
Vadmin
p381
sg11
g12
(g13
g14
NtRp382
(dp383
g17
I00
sg18
g19
sbsg30
I19
sg31
Vlog entry
p384
sbsg33
Vadd_logentry
p385
sg30
I55
sg31
VCan add log entry
p386
sbs(g36
g37
I19
tp387
g5
(g21
(lg7
tRp388
(dp389
g24
Vlogentry
p390
sg26
Vadmin
p391
sg11
g12
(g13
g14
NtRp392
(dp393
g17
I00
sg18
g19
sbsg30
I19
sg31
Vlog entry
p394
sbs(g2
g3
I37
tp395
g5
(g6
(lg7
tRp396
(dp397
g10
I13
sg11
g12
(g13
g14
NtRp398
(dp399
g17
I00
sg18
g19
sbsg20
g5
(g21
(lg7
tRp400
(dp401
g24
Vtblapetrechos
p402
sg26
Vgrmetodos
p403
sg11
g12
(g13
g14
NtRp404
(dp405
g17
I00
sg18
g19
sbsg30
I13
sg31
Vtbl apetrechos
p406
sbsg33
Vadd_tblapetrechos
p407
sg30
I37
sg31
VCan add tbl apetrechos
p408
sbs(g2
g3
I11
tp409
g5
(g6
(lg7
tRp410
(dp411
g10
I4
sg11
g12
(g13
g14
NtRp412
(dp413
g17
I00
sg18
g19
sbsg20
g5
(g21
(lg7
tRp414
(dp415
g24
Vmessage
p416
sg26
Vauth
p417
sg11
g12
(g13
g14
NtRp418
(dp419
g17
I00
sg18
g19
sbsg30
I4
sg31
Vmessage
p420
sbsg33
Vchange_message
p421
sg30
I11
sg31
VCan change message
p422
sbs(g36
g37
I4
tp423
g5
(g21
(lg7
tRp424
(dp425
g24
Vmessage
p426
sg26
Vauth
p427
sg11
g12
(g13
g14
NtRp428
(dp429
g17
I00
sg18
g19
sbsg30
I4
sg31
Vmessage
p430
sbs(g2
g3
I48
tp431
g5
(g6
(lg7
tRp432
(dp433
g10
I16
sg11
g12
(g13
g14
NtRp434
(dp435
g17
I00
sg18
g19
sbsg20
g5
(g21
(lg7
tRp436
(dp437
g24
Vtblinstrumentais
p438
sg26
Vgrmetodos
p439
sg11
g12
(g13
g14
NtRp440
(dp441
g17
I00
sg18
g19
sbsg30
I16
sg31
Vtbl instrumentais
p442
sbsg33
Vdelete_tblinstrumentais
p443
sg30
I48
sg31
VCan delete tbl instrumentais
p444
sbs(g36
g37
I18
tp445
g5
(g21
(lg7
tRp446
(dp447
g24
Vtblmetatets
p448
sg26
Vgrmetodos
p449
sg11
g12
(g13
g14
NtRp450
(dp451
g17
I00
sg18
g19
sbsg30
I18
sg31
Vtbl met at ets
p452
sbs(g2
g3
I38
tp453
g5
(g6
(lg7
tRp454
(dp455
g10
I13
sg11
g12
(g13
g14
NtRp456
(dp457
g17
I00
sg18
g19
sbsg20
g5
(g21
(lg7
tRp458
(dp459
g24
Vtblapetrechos
p460
sg26
Vgrmetodos
p461
sg11
g12
(g13
g14
NtRp462
(dp463
g17
I00
sg18
g19
sbsg30
I13
sg31
Vtbl apetrechos
p464
sbsg33
Vchange_tblapetrechos
p465
sg30
I38
sg31
VCan change tbl apetrechos
p466
sbs(g2
g3
I20
tp467
g5
(g6
(lg7
tRp468
(dp469
g10
I7
sg11
g12
(g13
g14
NtRp470
(dp471
g17
I00
sg18
g19
sbsg20
g5
(g21
(lg7
tRp472
(dp473
g24
Vsite
p474
sg26
Vsites
p475
sg11
g12
(g13
g14
NtRp476
(dp477
g17
I00
sg18
g19
sbsg30
I7
sg31
Vsite
p478
sbsg33
Vchange_site
p479
sg30
I20
sg31
VCan change site
p480
sbs(g267
g268
I2
tp481
g5
(g270
(lg7
tRp482
(dp483
g273
I2
sg274
g163
(S'\x07\xdc\x02\x10\x07\x1f\x08\x05\xdbs'
tRp484
sg276
I1
sg10
I11
sg277
Vmetro
p485
sg11
g12
(g13
g14
NtRp486
(dp487
g17
I00
sg18
g19
sbsg281
V2
sg282
VNo fields changed.
p488
sg30
I2
sbs(g36
g37
I7
tp489
g5
(g21
(lg7
tRp490
(dp491
g24
Vsite
p492
sg26
Vsites
p493
sg11
g12
(g13
g14
NtRp494
(dp495
g17
I00
sg18
g19
sbsg30
I7
sg31
Vsite
p496
sbs(g2
g3
I49
tp497
g5
(g6
(lg7
tRp498
(dp499
g10
I17
sg11
g12
(g13
g14
NtRp500
(dp501
g17
I00
sg18
g19
sbsg20
g5
(g21
(lg7
tRp502
(dp503
g24
Vtblmetins
p504
sg26
Vgrmetodos
p505
sg11
g12
(g13
g14
NtRp506
(dp507
g17
I00
sg18
g19
sbsg30
I17
sg31
Vtbl met ins
p508
sbsg33
Vadd_tblmetins
p509
sg30
I49
sg31
VCan add tbl met ins
p510
sbs(S'sites'
p511
S'site'
p512
I1
tp513
g5
(cdjango.contrib.sites.models
Site
p514
(lg7
tRp515
(dp516
S'domain'
p517
Vexample.com
p518
sg11
g12
(g13
g14
NtRp519
(dp520
g17
I00
sg18
g19
sbsg30
I1
sg31
Vexample.com
p521
sbs(g2
g3
I39
tp522
g5
(g6
(lg7
tRp523
(dp524
g10
I13
sg11
g12
(g13
g14
NtRp525
(dp526
g17
I00
sg18
g19
sbsg20
g5
(g21
(lg7
tRp527
(dp528
g24
Vtblapetrechos
p529
sg26
Vgrmetodos
p530
sg11
g12
(g13
g14
NtRp531
(dp532
g17
I00
sg18
g19
sbsg30
I13
sg31
Vtbl apetrechos
p533
sbsg33
Vdelete_tblapetrechos
p534
sg30
I39
sg31
VCan delete tbl apetrechos
p535
sbs(g2
g3
I21
tp536
g5
(g6
(lg7
tRp537
(dp538
g10
I7
sg11
g12
(g13
g14
NtRp539
(dp540
g17
I00
sg18
g19
sbsg20
g5
(g21
(lg7
tRp541
(dp542
g24
Vsite
p543
sg26
Vsites
p544
sg11
g12
(g13
g14
NtRp545
(dp546
g17
I00
sg18
g19
sbsg30
I7
sg31
Vsite
p547
sbsg33
Vdelete_site
p548
sg30
I21
sg31
VCan delete site
p549
sbs(g36
g37
I6
tp550
g5
(g21
(lg7
tRp551
(dp552
g24
Vsession
p553
sg26
Vsessions
p554
sg11
g12
(g13
g14
NtRp555
(dp556
g17
I00
sg18
g19
sbsg30
I6
sg31
Vsession
p557
sbs(g2
g3
I50
tp558
g5
(g6
(lg7
tRp559
(dp560
g10
I17
sg11
g12
(g13
g14
NtRp561
(dp562
g17
I00
sg18
g19
sbsg20
g5
(g21
(lg7
tRp563
(dp564
g24
Vtblmetins
p565
sg26
Vgrmetodos
p566
sg11
g12
(g13
g14
NtRp567
(dp568
g17
I00
sg18
g19
sbsg30
I17
sg31
Vtbl met ins
p569
sbsg33
Vchange_tblmetins
p570
sg30
I50
sg31
VCan change tbl met ins
p571
sbs(g2
g3
I32
tp572
g5
(g6
(lg7
tRp573
(dp574
g10
I11
sg11
g12
(g13
g14
NtRp575
(dp576
g17
I00
sg18
g19
sbsg20
g5
(g21
(lg7
tRp577
(dp578
g24
Vtblunidades
p579
sg26
Vgrmetodos
p580
sg11
g12
(g13
g14
NtRp581
(dp582
g17
I00
sg18
g19
sbsg30
I11
sg31
Vtbl unidades
p583
sbsg33
Vchange_tblunidades
p584
sg30
I32
sg31
VCan change tbl unidades
p585
sbs(g2
g3
I22
tp586
g5
(g6
(lg7
tRp587
(dp588
g10
I8
sg11
g12
(g13
g14
NtRp589
(dp590
g17
I00
sg18
g19
sbsg20
g5
(g21
(lg7
tRp591
(dp592
g24
Vmigrationhistory
p593
sg26
Vsouth
p594
sg11
g12
(g13
g14
NtRp595
(dp596
g17
I00
sg18
g19
sbsg30
I8
sg31
Vmigration history
p597
sbsg33
Vadd_migrationhistory
p598
sg30
I22
sg31
VCan add migration history
p599
sbs(g2
g3
I4
tp600
g5
(g6
(lg7
tRp601
(dp602
g10
I2
sg11
g12
(g13
g14
NtRp603
(dp604
g17
I00
sg18
g19
sbsg20
g5
(g21
(lg7
tRp605
(dp606
g24
Vgroup
p607
sg26
Vauth
p608
sg11
g12
(g13
g14
NtRp609
(dp610
g17
I00
sg18
g19
sbsg30
I2
sg31
Vgroup
p611
sbsg33
Vadd_group
p612
sg30
I4
sg31
VCan add group
p613
sbs(g2
g3
I51
tp614
g5
(g6
(lg7
tRp615
(dp616
g10
I17
sg11
g12
(g13
g14
NtRp617
(dp618
g17
I00
sg18
g19
sbsg20
g5
(g21
(lg7
tRp619
(dp620
g24
Vtblmetins
p621
sg26
Vgrmetodos
p622
sg11
g12
(g13
g14
NtRp623
(dp624
g17
I00
sg18
g19
sbsg30
I17
sg31
Vtbl met ins
p625
sbsg33
Vdelete_tblmetins
p626
sg30
I51
sg31
VCan delete tbl met ins
p627
sbs(g2
g3
I33
tp628
g5
(g6
(lg7
tRp629
(dp630
g10
I11
sg11
g12
(g13
g14
NtRp631
(dp632
g17
I00
sg18
g19
sbsg20
g5
(g21
(lg7
tRp633
(dp634
g24
Vtblunidades
p635
sg26
Vgrmetodos
p636
sg11
g12
(g13
g14
NtRp637
(dp638
g17
I00
sg18
g19
sbsg30
I11
sg31
Vtbl unidades
p639
sbsg33
Vdelete_tblunidades
p640
sg30
I33
sg31
VCan delete tbl unidades
p641
sbs(g2
g3
I23
tp642
g5
(g6
(lg7
tRp643
(dp644
g10
I8
sg11
g12
(g13
g14
NtRp645
(dp646
g17
I00
sg18
g19
sbsg20
g5
(g21
(lg7
tRp647
(dp648
g24
Vmigrationhistory
p649
sg26
Vsouth
p650
sg11
g12
(g13
g14
NtRp651
(dp652
g17
I00
sg18
g19
sbsg30
I8
sg31
Vmigration history
p653
sbsg33
Vchange_migrationhistory
p654
sg30
I23
sg31
VCan change migration history
p655
sbs(g2
g3
I5
tp656
g5
(g6
(lg7
tRp657
(dp658
g10
I2
sg11
g12
(g13
g14
NtRp659
(dp660
g17
I00
sg18
g19
sbsg20
g5
(g21
(lg7
tRp661
(dp662
g24
Vgroup
p663
sg26
Vauth
p664
sg11
g12
(g13
g14
NtRp665
(dp666
g17
I00
sg18
g19
sbsg30
I2
sg31
Vgroup
p667
sbsg33
Vchange_group
p668
sg30
I5
sg31
VCan change group
p669
sbs(g2
g3
I34
tp670
g5
(g6
(lg7
tRp671
(dp672
g10
I12
sg11
g12
(g13
g14
NtRp673
(dp674
g17
I00
sg18
g19
sbsg20
g5
(g21
(lg7
tRp675
(dp676
g24
Vtbllocais
p677
sg26
Vgrmetodos
p678
sg11
g12
(g13
g14
NtRp679
(dp680
g17
I00
sg18
g19
sbsg30
I12
sg31
Vtbl locais
p681
sbsg33
Vadd_tbllocais
p682
sg30
I34
sg31
VCan add tbl locais
p683
sbs(g2
g3
I16
tp684
g5
(g6
(lg7
tRp685
(dp686
g10
I6
sg11
g12
(g13
g14
NtRp687
(dp688
g17
I00
sg18
g19
sbsg20
g5
(g21
(lg7
tRp689
(dp690
g24
Vsession
p691
sg26
Vsessions
p692
sg11
g12
(g13
g14
NtRp693
(dp694
g17
I00
sg18
g19
sbsg30
I6
sg31
Vsession
p695
sbsg33
Vadd_session
p696
sg30
I16
sg31
VCan add session
p697
sbs(g2
g3
I6
tp698
g5
(g6
(lg7
tRp699
(dp700
g10
I2
sg11
g12
(g13
g14
NtRp701
(dp702
g17
I00
sg18
g19
sbsg20
g5
(g21
(lg7
tRp703
(dp704
g24
Vgroup
p705
sg26
Vauth
p706
sg11
g12
(g13
g14
NtRp707
(dp708
g17
I00
sg18
g19
sbsg30
I2
sg31
Vgroup
p709
sbsg33
Vdelete_group
p710
sg30
I6
sg31
VCan delete group
p711
sbs(S'grmetodos'
p712
S'tblunidades'
p713
I3
tp714
g5
(cgrmetodos.models
TblUnidades
p715
(lg7
tRp716
(dp717
S'nome'
p718
Vmetro
p719
sS'unidade'
p720
Vme
p721
sS'esp_tem'
p722
VE
sS'dimensao'
p723
VU
sg11
g12
(g13
g14
NtRp724
(dp725
g17
I00
sg18
g19
sbsg30
I3
sS'descricao'
p726
Vmetro
p727
sbs(g36
g37
I9
tp728
g5
(g21
(lg7
tRp729
(dp730
g24
Vtblatributos
p731
sg26
Vatributos
p732
sg11
g12
(g13
g14
NtRp733
(dp734
g17
I00
sg18
g19
sbsg30
I9
sg31
Vtbl atributos
p735
sbs(g2
g3
I35
tp736
g5
(g6
(lg7
tRp737
(dp738
g10
I12
sg11
g12
(g13
g14
NtRp739
(dp740
g17
I00
sg18
g19
sbsg20
g5
(g21
(lg7
tRp741
(dp742
g24
Vtbllocais
p743
sg26
Vgrmetodos
p744
sg11
g12
(g13
g14
NtRp745
(dp746
g17
I00
sg18
g19
sbsg30
I12
sg31
Vtbl locais
p747
sbsg33
Vchange_tbllocais
p748
sg30
I35
sg31
VCan change tbl locais
p749
sbs(g2
g3
I17
tp750
g5
(g6
(lg7
tRp751
(dp752
g10
I6
sg11
g12
(g13
g14
NtRp753
(dp754
g17
I00
sg18
g19
sbsg20
g5
(g21
(lg7
tRp755
(dp756
g24
Vsession
p757
sg26
Vsessions
p758
sg11
g12
(g13
g14
NtRp759
(dp760
g17
I00
sg18
g19
sbsg30
I6
sg31
Vsession
p761
sbsg33
Vchange_session
p762
sg30
I17
sg31
VCan change session
p763
sbs(g2
g3
I7
tp764
g5
(g6
(lg7
tRp765
(dp766
g10
I3
sg11
g12
(g13
g14
NtRp767
(dp768
g17
I00
sg18
g19
sbsg20
g5
(g21
(lg7
tRp769
(dp770
g24
Vuser
p771
sg26
Vauth
p772
sg11
g12
(g13
g14
NtRp773
(dp774
g17
I00
sg18
g19
sbsg30
I3
sg31
Vuser
p775
sbsg33
Vadd_user
p776
sg30
I7
sg31
VCan add user
p777
sbs(g36
g37
I8
tp778
g5
(g21
(lg7
tRp779
(dp780
g24
Vmigrationhistory
p781
sg26
Vsouth
p782
sg11
g12
(g13
g14
NtRp783
(dp784
g17
I00
sg18
g19
sbsg30
I8
sg31
Vmigration history
p785
sbs(g2
g3
I44
tp786
g5
(g6
(lg7
tRp787
(dp788
g10
I15
sg11
g12
(g13
g14
NtRp789
(dp790
g17
I00
sg18
g19
sbsg20
g5
(g21
(lg7
tRp791
(dp792
g24
Vtblatrets
p793
sg26
Vgrmetodos
p794
sg11
g12
(g13
g14
NtRp795
(dp796
g17
I00
sg18
g19
sbsg30
I15
sg31
Vtbl atr ets
p797
sbsg33
Vchange_tblatrets
p798
sg30
I44
sg31
VCan change tbl atr ets
p799
sbs(g2
g3
I18
tp800
g5
(g6
(lg7
tRp801
(dp802
g10
I6
sg11
g12
(g13
g14
NtRp803
(dp804
g17
I00
sg18
g19
sbsg20
g5
(g21
(lg7
tRp805
(dp806
g24
Vsession
p807
sg26
Vsessions
p808
sg11
g12
(g13
g14
NtRp809
(dp810
g17
I00
sg18
g19
sbsg30
I6
sg31
Vsession
p811
sbsg33
Vdelete_session
p812
sg30
I18
sg31
VCan delete session
p813
sbs(g712
g713
I1
tp814
g5
(g715
(lg7
tRp815
(dp816
g718
Vsegundo
p817
sg720
Vs
sg722
VT
sg723
VU
sg11
g12
(g13
g14
NtRp818
(dp819
g17
I00
sg18
g19
sbsg30
I1
sg726
Vsegundo
p820
sbs(g36
g37
I11
tp821
g5
(g21
(lg7
tRp822
(dp823
g24
Vtblunidades
p824
sg26
Vgrmetodos
p825
sg11
g12
(g13
g14
NtRp826
(dp827
g17
I00
sg18
g19
sbsg30
I11
sg31
Vtbl unidades
p828
sbs(g2
g3
I45
tp829
g5
(g6
(lg7
tRp830
(dp831
g10
I15
sg11
g12
(g13
g14
NtRp832
(dp833
g17
I00
sg18
g19
sbsg20
g5
(g21
(lg7
tRp834
(dp835
g24
Vtblatrets
p836
sg26
Vgrmetodos
p837
sg11
g12
(g13
g14
NtRp838
(dp839
g17
I00
sg18
g19
sbsg30
I15
sg31
Vtbl atr ets
p840
sbsg33
Vdelete_tblatrets
p841
sg30
I45
sg31
VCan delete tbl atr ets
p842
sbs(g2
g3
I19
tp843
g5
(g6
(lg7
tRp844
(dp845
g10
I7
sg11
g12
(g13
g14
NtRp846
(dp847
g17
I00
sg18
g19
sbsg20
g5
(g21
(lg7
tRp848
(dp849
g24
Vsite
p850
sg26
Vsites
p851
sg11
g12
(g13
g14
NtRp852
(dp853
g17
I00
sg18
g19
sbsg30
I7
sg31
Vsite
p854
sbsg33
Vadd_site
p855
sg30
I19
sg31
VCan add site
p856
sbs(g2
g3
I1
tp857
g5
(g6
(lg7
tRp858
(dp859
g10
I1
sg11
g12
(g13
g14
NtRp860
(dp861
g17
I00
sg18
g19
sbsg20
g5
(g21
(lg7
tRp862
(dp863
g24
Vpermission
p864
sg26
Vauth
p865
sg11
g12
(g13
g14
NtRp866
(dp867
g17
I00
sg18
g19
sbsg30
I1
sg31
Vpermission
p868
sbsg33
Vadd_permission
p869
sg30
I1
sg31
VCan add permission
p870
sbs(g2
g3
I56
tp871
g5
(g6
(lg7
tRp872
(dp873
g10
I19
sg11
g12
(g13
g14
NtRp874
(dp875
g17
I00
sg18
g19
sbsg20
g5
(g21
(lg7
tRp876
(dp877
g24
Vlogentry
p878
sg26
Vadmin
p879
sg11
g12
(g13
g14
NtRp880
(dp881
g17
I00
sg18
g19
sbsg30
I19
sg31
Vlog entry
p882
sbsg33
Vchange_logentry
p883
sg30
I56
sg31
VCan change log entry
p884
sbs(g36
g37
I10
tp885
g5
(g21
(lg7
tRp886
(dp887
g24
Vtblatribs
p888
sg26
Vgrmetodos
p889
sg11
g12
(g13
g14
NtRp890
(dp891
g17
I00
sg18
g19
sbsg30
I10
sg31
Vtbl atribs
p892
sbs(g2
g3
I46
tp893
g5
(g6
(lg7
tRp894
(dp895
g10
I16
sg11
g12
(g13
g14
NtRp896
(dp897
g17
I00
sg18
g19
sbsg20
g5
(g21
(lg7
tRp898
(dp899
g24
Vtblinstrumentais
p900
sg26
Vgrmetodos
p901
sg11
g12
(g13
g14
NtRp902
(dp903
g17
I00
sg18
g19
sbsg30
I16
sg31
Vtbl instrumentais
p904
sbsg33
Vadd_tblinstrumentais
p905
sg30
I46
sg31
VCan add tbl instrumentais
p906
sbs(g2
g3
I28
tp907
g5
(g6
(lg7
tRp908
(dp909
g10
I10
sg11
g12
(g13
g14
NtRp910
(dp911
g17
I00
sg18
g19
sbsg20
g5
(g21
(lg7
tRp912
(dp913
g24
Vtblatribs
p914
sg26
Vgrmetodos
p915
sg11
g12
(g13
g14
NtRp916
(dp917
g17
I00
sg18
g19
sbsg30
I10
sg31
Vtbl atribs
p918
sbsg33
Vadd_tblatribs
p919
sg30
I28
sg31
VCan add tbl atribs
p920
sbs(g2
g3
I2
tp921
g5
(g6
(lg7
tRp922
(dp923
g10
I1
sg11
g12
(g13
g14
NtRp924
(dp925
g17
I00
sg18
g19
sbsg20
g5
(g21
(lg7
tRp926
(dp927
g24
Vpermission
p928
sg26
Vauth
p929
sg11
g12
(g13
g14
NtRp930
(dp931
g17
I00
sg18
g19
sbsg30
I1
sg31
Vpermission
p932
sbsg33
Vchange_permission
p933
sg30
I2
sg31
VCan change permission
p934
sbs(g2
g3
I57
tp935
g5
(g6
(lg7
tRp936
(dp937
g10
I19
sg11
g12
(g13
g14
NtRp938
(dp939
g17
I00
sg18
g19
sbsg20
g5
(g21
(lg7
tRp940
(dp941
g24
Vlogentry
p942
sg26
Vadmin
p943
sg11
g12
(g13
g14
NtRp944
(dp945
g17
I00
sg18
g19
sbsg30
I19
sg31
Vlog entry
p946
sbsg33
Vdelete_logentry
p947
sg30
I57
sg31
VCan delete log entry
p948
sbs(g36
g37
I13
tp949
g5
(g21
(lg7
tRp950
(dp951
g24
Vtblapetrechos
p952
sg26
Vgrmetodos
p953
sg11
g12
(g13
g14
NtRp954
(dp955
g17
I00
sg18
g19
sbsg30
I13
sg31
Vtbl apetrechos
p956
sbs(g2
g3
I47
tp957
g5
(g6
(lg7
tRp958
(dp959
g10
I16
sg11
g12
(g13
g14
NtRp960
(dp961
g17
I00
sg18
g19
sbsg20
g5
(g21
(lg7
tRp962
(dp963
g24
Vtblinstrumentais
p964
sg26
Vgrmetodos
p965
sg11
g12
(g13
g14
NtRp966
(dp967
g17
I00
sg18
g19
sbsg30
I16
sg31
Vtbl instrumentais
p968
sbsg33
Vchange_tblinstrumentais
p969
sg30
I47
sg31
VCan change tbl instrumentais
p970
sbs(g2
g3
I29
tp971
g5
(g6
(lg7
tRp972
(dp973
g10
I10
sg11
g12
(g13
g14
NtRp974
(dp975
g17
I00
sg18
g19
sbsg20
g5
(g21
(lg7
tRp976
(dp977
g24
Vtblatribs
p978
sg26
Vgrmetodos
p979
sg11
g12
(g13
g14
NtRp980
(dp981
g17
I00
sg18
g19
sbsg30
I10
sg31
Vtbl atribs
p982
sbsg33
Vchange_tblatribs
p983
sg30
I29
sg31
VCan change tbl atribs
p984
sbs(g2
g3
I3
tp985
g5
(g6
(lg7
tRp986
(dp987
g10
I1
sg11
g12
(g13
g14
NtRp988
(dp989
g17
I00
sg18
g19
sbsg20
g5
(g21
(lg7
tRp990
(dp991
g24
Vpermission
p992
sg26
Vauth
p993
sg11
g12
(g13
g14
NtRp994
(dp995
g17
I00
sg18
g19
sbsg30
I1
sg31
Vpermission
p996
sbsg33
Vdelete_permission
p997
sg30
I3
sg31
VCan delete permission
p998
sbs(g36
g37
I12
tp999
g5
(g21
(lg7
tRp1000
(dp1001
g24
Vtbllocais
p1002
sg26
Vgrmetodos
p1003
sg11
g12
(g13
g14
NtRp1004
(dp1005
g17
I00
sg18
g19
sbsg30
I12
sg31
Vtbl locais
p1006
sbs(g2
g3
I40
tp1007
g5
(g6
(lg7
tRp1008
(dp1009
g10
I14
sg11
g12
(g13
g14
NtRp1010
(dp1011
g17
I00
sg18
g19
sbsg20
g5
(g21
(lg7
tRp1012
(dp1013
g24
Vtblmetodos
p1014
sg26
Vgrmetodos
p1015
sg11
g12
(g13
g14
NtRp1016
(dp1017
g17
I00
sg18
g19
sbsg30
I14
sg31
Vtbl metodos
p1018
sbsg33
Vadd_tblmetodos
p1019
sg30
I40
sg31
VCan add tbl metodos
p1020
sbs(g2
g3
I30
tp1021
g5
(g6
(lg7
tRp1022
(dp1023
g10
I10
sg11
g12
(g13
g14
NtRp1024
(dp1025
g17
I00
sg18
g19
sbsg20
g5
(g21
(lg7
tRp1026
(dp1027
g24
Vtblatribs
p1028
sg26
Vgrmetodos
p1029
sg11
g12
(g13
g14
NtRp1030
(dp1031
g17
I00
sg18
g19
sbsg30
I10
sg31
Vtbl atribs
p1032
sbsg33
Vdelete_tblatribs
p1033
sg30
I30
sg31
VCan delete tbl atribs
p1034
sbs(g2
g3
I12
tp1035
g5
(g6
(lg7
tRp1036
(dp1037
g10
I4
sg11
g12
(g13
g14
NtRp1038
(dp1039
g17
I00
sg18
g19
sbsg20
g5
(g21
(lg7
tRp1040
(dp1041
g24
Vmessage
p1042
sg26
Vauth
p1043
sg11
g12
(g13
g14
NtRp1044
(dp1045
g17
I00
sg18
g19
sbsg30
I4
sg31
Vmessage
p1046
sbsg33
Vdelete_message
p1047
sg30
I12
sg31
VCan delete message
p1048
sbs(g36
g37
I15
tp1049
g5
(g21
(lg7
tRp1050
(dp1051
g24
Vtblatrets
p1052
sg26
Vgrmetodos
p1053
sg11
g12
(g13
g14
NtRp1054
(dp1055
g17
I00
sg18
g19
sbsg30
I15
sg31
Vtbl atr ets
p1056
sbs(g2
g3
I41
tp1057
g5
(g6
(lg7
tRp1058
(dp1059
g10
I14
sg11
g12
(g13
g14
NtRp1060
(dp1061
g17
I00
sg18
g19
sbsg20
g5
(g21
(lg7
tRp1062
(dp1063
g24
Vtblmetodos
p1064
sg26
Vgrmetodos
p1065
sg11
g12
(g13
g14
NtRp1066
(dp1067
g17
I00
sg18
g19
sbsg30
I14
sg31
Vtbl metodos
p1068
sbsg33
Vchange_tblmetodos
p1069
sg30
I41
sg31
VCan change tbl metodos
p1070
sbs(g2
g3
I31
tp1071
g5
(g6
(lg7
tRp1072
(dp1073
g10
I11
sg11
g12
(g13
g14
NtRp1074
(dp1075
g17
I00
sg18
g19
sbsg20
g5
(g21
(lg7
tRp1076
(dp1077
g24
Vtblunidades
p1078
sg26
Vgrmetodos
p1079
sg11
g12
(g13
g14
NtRp1080
(dp1081
g17
I00
sg18
g19
sbsg30
I11
sg31
Vtbl unidades
p1082
sbsg33
Vadd_tblunidades
p1083
sg30
I31
sg31
VCan add tbl unidades
p1084
sbs(lp1085
(g332
S'groups'
p1086
(ttp1087
a(g332
S'user_permissions'
p1088
(ttp1089
at.